; Function Attrs: nounwind sspstrong uwtable
define internal range(i64 1, 4294967296) i64 @proc_getpgid(i64 %0, i64 noundef %1) #1 {
  %3 = and i64 %1, 1
  %.not.i = icmp eq i64 %3, 0
  br i1 %.not.i, label %6, label %4

4:                                                ; preds = %2
  %5 = tail call i64 @rb_fix2int(i64 noundef %1) #27
  br label %rb_num2int_inline.exit

6:                                                ; preds = %2
  %7 = tail call i64 @rb_num2int(i64 noundef %1) #27
  br label %rb_num2int_inline.exit

rb_num2int_inline.exit:                           ; preds = %4, %6
  %.0.i = phi i64 [ %5, %4 ], [ %7, %6 ]
  %8 = trunc i64 %.0.i to i32
  %9 = tail call i32 @getpgid(i32 noundef %8) #27
  %10 = icmp slt i32 %9, 0
  br i1 %10, label %11, label %14

11:                                               ; preds = %rb_num2int_inline.exit
  %12 = tail call ptr @rb_errno_ptr() #27
  %13 = load i32, ptr %12, align 4, !tbaa !60
  tail call void @rb_syserr_fail(i32 noundef %13, ptr noundef null) #29
  unreachable

14:                                               ; preds = %rb_num2int_inline.exit
  %15 = shl nuw i32 %9, 1
  %16 = or disjoint i32 %15, 1
  %17 = zext i32 %16 to i64
  ret i64 %17
}